; Function Attrs: mustprogress uwtable
define internal noundef i32 @_ZL16rsa_encrypt_wrapPvPKhmPhPmmPFiS_S2_mES_(ptr noundef %0, ptr noundef %1, i64 noundef %2, ptr noundef %3, ptr noundef writeonly captures(none) initializes((0, 8)) %4, i64 noundef %5, ptr noundef %6, ptr noundef %7) #0 {
  %9 = tail call i64 @mbedtls_rsa_get_len(ptr noundef %0)
  store i64 %9, ptr %4, align 8, !tbaa !3
  %10 = icmp ugt i64 %9, %5
  br i1 %10, label %13, label %11

11:                                               ; preds = %8
  %12 = tail call i32 @mbedtls_rsa_pkcs1_encrypt(ptr noundef %0, ptr noundef %6, ptr noundef %7, i64 noundef %2, ptr noundef %1, ptr noundef %3)
  br label %13

13:                                               ; preds = %8, %11
  %.0 = phi i32 [ %12, %11 ], [ -17408, %8 ]
  ret i32 %.0
}